; Function Attrs: mustprogress uwtable
define void @_ZN15EditAlignPlugin7endEditER9MeshModelP6GLAreaP26MLSceneGLSharedDataContext(ptr noundef nonnull align 8 dereferenceable(1056) %0, ptr nocapture noundef nonnull readnone align 8 dereferenceable(1288) %1, ptr nocapture noundef readnone %2, ptr nocapture noundef readnone %3) unnamed_addr #9 align 2 {
  %5 = alloca %class.QMessageLogger, align 8
  store i32 2, ptr %5, align 8
  %6 = getelementptr inbounds i8, ptr %5, i64 4
  %7 = getelementptr inbounds i8, ptr %5, i64 24
  call void @llvm.memset.p0.i64(ptr noundef nonnull align 4 dereferenceable(20) %6, i8 0, i64 20, i1 false)
  store ptr @.str.36, ptr %7, align 8
  call void (ptr, ptr, ...) @_ZNK14QMessageLogger5debugEPKcz(ptr noundef nonnull align 8 dereferenceable(32) %5, ptr noundef nonnull @.str.35)
  %8 = getelementptr inbounds i8, ptr %0, i64 680
  call void @_ZN3vcg8MeshTreeI9MeshModelfE5clearEv(ptr noundef nonnull align 8 dereferenceable(240) %8)
  %9 = getelementptr inbounds i8, ptr %0, i64 56
  %10 = load ptr, ptr %9, align 8
  %11 = icmp eq ptr %10, null
  br i1 %11, label %16, label %12

12:                                               ; preds = %4
  %13 = load ptr, ptr %10, align 8
  %14 = getelementptr inbounds i8, ptr %13, i64 32
  %15 = load ptr, ptr %14, align 8
  call void %15(ptr noundef nonnull align 8 dereferenceable(376) %10) #23
  br label %16

16:                                               ; preds = %12, %4
  store ptr null, ptr %9, align 8
  ret void
}